target datalayout = "e-m:e-p270:32:32-p271:32:32-p272:64:64-i64:64-i128:128-f80:128-n8:16:32:64-S128"
target triple = "x86_64-pc-linux-gnu"

%struct.ResourceOwnerDesc = type { ptr, i32, i32, ptr, ptr }
%struct.PrivateRefCountEntry = type { i32, i32 }
%struct.buftag = type { i32, i32, i32, i32, i32 }
%struct.LWLock = type { i16, %struct.pg_atomic_uint32, %struct.proclist_head }
%struct.pg_atomic_uint32 = type { i32 }
%struct.proclist_head = type { i32, i32 }
%struct.BufferDesc = type { %struct.buftag, i32, %struct.pg_atomic_uint32, i32, i32, %struct.LWLock }
%struct.SpinDelayStatus = type { i32, i32, i32, ptr, i32, ptr }

@buffer_pin_resowner_desc = dso_local constant %struct.ResourceOwnerDesc { ptr @.str.1, i32 1, i32 200, ptr @ResOwnerReleaseBufferPin, ptr @ResOwnerPrintBufferPin }, align 8
@.str.3 = private unnamed_addr constant [9 x i8] c"bufmgr.c\00", align 1
@CurrentResourceOwner = external global ptr, align 8
@ReservedRefCountEntry = internal global ptr null, align 8
@__func__.WaitBufHdrUnlocked = private unnamed_addr constant [19 x i8] c"WaitBufHdrUnlocked\00", align 1

; Function Attrs: inlinehint nounwind uwtable
define internal i64 @Int32GetDatum(i32 noundef %0) #3 {
  %2 = alloca i32, align 4
  store i32 %0, ptr %2, align 4
  %3 = load i32, ptr %2, align 4
  %4 = sext i32 %3 to i64
  ret i64 %4
}

; Function Attrs: inlinehint nounwind uwtable
define internal zeroext i1 @pg_atomic_compare_exchange_u32_impl(ptr noundef %0, ptr noundef %1, i32 noundef %2) #3 {
  %4 = alloca ptr, align 8
  %5 = alloca ptr, align 8
  %6 = alloca i32, align 4
  %7 = alloca i8, align 1
  store ptr %0, ptr %4, align 8
  store ptr %1, ptr %5, align 8
  store i32 %2, ptr %6, align 4
  call void @llvm.lifetime.start.p0(i64 1, ptr %7) #10
  %8 = load ptr, ptr %5, align 8
  %9 = load ptr, ptr %4, align 8
  %10 = getelementptr inbounds nuw %struct.pg_atomic_uint32, ptr %9, i32 0, i32 0
  %11 = load ptr, ptr %5, align 8
  %12 = load i32, ptr %11, align 4
  %13 = load i32, ptr %6, align 4
  %14 = load ptr, ptr %4, align 8
  %15 = getelementptr inbounds nuw %struct.pg_atomic_uint32, ptr %14, i32 0, i32 0
  %16 = call { i32, i8 } asm sideeffect "\09lock\09\09\09\09\0A\09cmpxchgl\09$4,$5\09\0A   setz\09\09$2\09\09\0A", "={ax},=*m,=q,{ax},r,*m,~{memory},~{cc},~{dirflag},~{fpsr},~{flags}"(ptr elementtype(i32) %10, i32 %12, i32 %13, ptr elementtype(i32) %15) #10, !srcloc !59
  %17 = extractvalue { i32, i8 } %16, 0
  %18 = extractvalue { i32, i8 } %16, 1
  store i32 %17, ptr %8, align 4
  store i8 %18, ptr %7, align 1
  %19 = load i8, ptr %7, align 1
  %20 = icmp ne i8 %19, 0
  call void @llvm.lifetime.end.p0(i64 1, ptr %7) #10
  ret i1 %20
}

; Function Attrs: inlinehint nounwind uwtable
define internal void @init_spin_delay(ptr noundef %0, ptr noundef %1, i32 noundef %2, ptr noundef %3) #3 {
  %5 = alloca ptr, align 8
  %6 = alloca ptr, align 8
  %7 = alloca i32, align 4
  %8 = alloca ptr, align 8
  store ptr %0, ptr %5, align 8
  store ptr %1, ptr %6, align 8
  store i32 %2, ptr %7, align 4
  store ptr %3, ptr %8, align 8
  %9 = load ptr, ptr %5, align 8
  %10 = getelementptr inbounds nuw %struct.SpinDelayStatus, ptr %9, i32 0, i32 0
  store i32 0, ptr %10, align 8
  %11 = load ptr, ptr %5, align 8
  %12 = getelementptr inbounds nuw %struct.SpinDelayStatus, ptr %11, i32 0, i32 1
  store i32 0, ptr %12, align 4
  %13 = load ptr, ptr %5, align 8
  %14 = getelementptr inbounds nuw %struct.SpinDelayStatus, ptr %13, i32 0, i32 2
  store i32 0, ptr %14, align 8
  %15 = load ptr, ptr %6, align 8
  %16 = load ptr, ptr %5, align 8
  %17 = getelementptr inbounds nuw %struct.SpinDelayStatus, ptr %16, i32 0, i32 3
  store ptr %15, ptr %17, align 8
  %18 = load i32, ptr %7, align 4
  %19 = load ptr, ptr %5, align 8
  %20 = getelementptr inbounds nuw %struct.SpinDelayStatus, ptr %19, i32 0, i32 4
  store i32 %18, ptr %20, align 8
  %21 = load ptr, ptr %8, align 8
  %22 = load ptr, ptr %5, align 8
  %23 = getelementptr inbounds nuw %struct.SpinDelayStatus, ptr %22, i32 0, i32 5
  store ptr %21, ptr %23, align 8
  ret void
}

; Function Attrs: inlinehint nounwind uwtable
define internal i32 @pg_atomic_read_u32_impl(ptr noundef %0) #3 {
  %2 = alloca ptr, align 8
  store ptr %0, ptr %2, align 8
  %3 = load ptr, ptr %2, align 8
  %4 = getelementptr inbounds nuw %struct.pg_atomic_uint32, ptr %3, i32 0, i32 0
  %5 = load volatile i32, ptr %4, align 4
  ret i32 %5
}

; Function Attrs: inlinehint nounwind uwtable
define internal void @ResourceOwnerRememberBuffer(ptr noundef %0, i32 noundef %1) #3 {
  %3 = alloca ptr, align 8
  %4 = alloca i32, align 4
  store ptr %0, ptr %3, align 8
  store i32 %1, ptr %4, align 4
  %5 = load ptr, ptr %3, align 8
  %6 = load i32, ptr %4, align 4
  %7 = call i64 @Int32GetDatum(i32 noundef %6)
  call void @ResourceOwnerRemember(ptr noundef %5, i64 noundef %7, ptr noundef @buffer_pin_resowner_desc)
  ret void
}

; Function Attrs: inlinehint nounwind uwtable
define internal zeroext i1 @pg_atomic_compare_exchange_u32(ptr noundef %0, ptr noundef %1, i32 noundef %2) #3 {
  %4 = alloca ptr, align 8
  %5 = alloca ptr, align 8
  %6 = alloca i32, align 4
  store ptr %0, ptr %4, align 8
  store ptr %1, ptr %5, align 8
  store i32 %2, ptr %6, align 4
  %7 = load ptr, ptr %4, align 8
  %8 = load ptr, ptr %5, align 8
  %9 = load i32, ptr %6, align 4
  %10 = call zeroext i1 @pg_atomic_compare_exchange_u32_impl(ptr noundef %7, ptr noundef %8, i32 noundef %9)
  ret i1 %10
}

; Function Attrs: nounwind uwtable
define internal i32 @WaitBufHdrUnlocked(ptr noundef %0) #0 {
  %2 = alloca ptr, align 8
  %3 = alloca %struct.SpinDelayStatus, align 8
  %4 = alloca i32, align 4
  store ptr %0, ptr %2, align 8
  call void @llvm.lifetime.start.p0(i64 40, ptr %3) #10
  call void @llvm.lifetime.start.p0(i64 4, ptr %4) #10
  call void @init_spin_delay(ptr noundef %3, ptr noundef @.str.3, i32 noundef 5735, ptr noundef @__func__.WaitBufHdrUnlocked)
  %5 = load ptr, ptr %2, align 8
  %6 = getelementptr inbounds nuw %struct.BufferDesc, ptr %5, i32 0, i32 2
  %7 = call i32 @pg_atomic_read_u32(ptr noundef %6)
  store i32 %7, ptr %4, align 4
  br label %8

8:                                                ; preds = %12, %1
  %9 = load i32, ptr %4, align 4
  %10 = and i32 %9, 4194304
  %11 = icmp ne i32 %10, 0
  br i1 %11, label %12, label %16

12:                                               ; preds = %8
  call void @perform_spin_delay(ptr noundef %3)
  %13 = load ptr, ptr %2, align 8
  %14 = getelementptr inbounds nuw %struct.BufferDesc, ptr %13, i32 0, i32 2
  %15 = call i32 @pg_atomic_read_u32(ptr noundef %14)
  store i32 %15, ptr %4, align 4
  br label %8, !llvm.loop !15

16:                                               ; preds = %8
  call void @finish_spin_delay(ptr noundef %3)
  %17 = load i32, ptr %4, align 4
  call void @llvm.lifetime.end.p0(i64 4, ptr %4) #10
  call void @llvm.lifetime.end.p0(i64 40, ptr %3) #10
  ret i32 %17
}

; Function Attrs: inlinehint nounwind uwtable
define internal i32 @pg_atomic_read_u32(ptr noundef %0) #3 {
  %2 = alloca ptr, align 8
  store ptr %0, ptr %2, align 8
  %3 = load ptr, ptr %2, align 8
  %4 = call i32 @pg_atomic_read_u32_impl(ptr noundef %3)
  ret i32 %4
}

; Function Attrs: nounwind uwtable
define internal ptr @NewPrivateRefCountEntry(i32 noundef %0) #0 {
  %2 = alloca i32, align 4
  %3 = alloca ptr, align 8
  store i32 %0, ptr %2, align 4
  call void @llvm.lifetime.start.p0(i64 8, ptr %3) #10
  %4 = load ptr, ptr @ReservedRefCountEntry, align 8
  store ptr %4, ptr %3, align 8
  store ptr null, ptr @ReservedRefCountEntry, align 8
  %5 = load i32, ptr %2, align 4
  %6 = load ptr, ptr %3, align 8
  %7 = getelementptr inbounds nuw %struct.PrivateRefCountEntry, ptr %6, i32 0, i32 0
  store i32 %5, ptr %7, align 4
  %8 = load ptr, ptr %3, align 8
  %9 = getelementptr inbounds nuw %struct.PrivateRefCountEntry, ptr %8, i32 0, i32 1
  store i32 0, ptr %9, align 4
  %10 = load ptr, ptr %3, align 8
  call void @llvm.lifetime.end.p0(i64 8, ptr %3) #10
  ret ptr %10
}

; Function Attrs: inlinehint nounwind uwtable
define internal i32 @BufferDescriptorGetBuffer(ptr noundef %0) #3 {
  %2 = alloca ptr, align 8
  store ptr %0, ptr %2, align 8
  %3 = load ptr, ptr %2, align 8
  %4 = getelementptr inbounds nuw %struct.BufferDesc, ptr %3, i32 0, i32 1
  %5 = load i32, ptr %4, align 4
  %6 = add i32 %5, 1
  ret i32 %6
}

; Function Attrs: nounwind uwtable
define internal zeroext i1 @PinBuffer(ptr noundef %0, ptr noundef %1) #0 {
  %3 = alloca ptr, align 8
  %4 = alloca ptr, align 8
  %5 = alloca i32, align 4
  %6 = alloca i8, align 1
  %7 = alloca ptr, align 8
  %8 = alloca i32, align 4
  %9 = alloca i32, align 4
  store ptr %0, ptr %3, align 8
  store ptr %1, ptr %4, align 8
  call void @llvm.lifetime.start.p0(i64 4, ptr %5) #10
  %10 = load ptr, ptr %3, align 8
  %11 = call i32 @BufferDescriptorGetBuffer(ptr noundef %10)
  store i32 %11, ptr %5, align 4
  call void @llvm.lifetime.start.p0(i64 1, ptr %6) #10
  call void @llvm.lifetime.start.p0(i64 8, ptr %7) #10
  %12 = load i32, ptr %5, align 4
  %13 = call ptr @GetPrivateRefCountEntry(i32 noundef %12, i1 noundef zeroext true)
  store ptr %13, ptr %7, align 8
  %14 = load ptr, ptr %7, align 8
  %15 = icmp eq ptr %14, null
  br i1 %15, label %16, label %68

16:                                               ; preds = %2
  call void @llvm.lifetime.start.p0(i64 4, ptr %8) #10
  call void @llvm.lifetime.start.p0(i64 4, ptr %9) #10
  %17 = load i32, ptr %5, align 4
  %18 = call ptr @NewPrivateRefCountEntry(i32 noundef %17)
  store ptr %18, ptr %7, align 8
  %19 = load ptr, ptr %3, align 8
  %20 = getelementptr inbounds nuw %struct.BufferDesc, ptr %19, i32 0, i32 2
  %21 = call i32 @pg_atomic_read_u32(ptr noundef %20)
  store i32 %21, ptr %9, align 4
  br label %22

22:                                               ; preds = %66, %16
  %23 = load i32, ptr %9, align 4
  %24 = and i32 %23, 4194304
  %25 = icmp ne i32 %24, 0
  br i1 %25, label %26, label %29

26:                                               ; preds = %22
  %27 = load ptr, ptr %3, align 8
  %28 = call i32 @WaitBufHdrUnlocked(ptr noundef %27)
  store i32 %28, ptr %9, align 4
  br label %29

29:                                               ; preds = %26, %22
  %30 = load i32, ptr %9, align 4
  store i32 %30, ptr %8, align 4
  %31 = load i32, ptr %8, align 4
  %32 = add i32 %31, 1
  store i32 %32, ptr %8, align 4
  %33 = load ptr, ptr %4, align 8
  %34 = icmp eq ptr %33, null
  br i1 %34, label %35, label %44

35:                                               ; preds = %29
  %36 = load i32, ptr %8, align 4
  %37 = and i32 %36, 3932160
  %38 = lshr i32 %37, 18
  %39 = icmp ult i32 %38, 5
  br i1 %39, label %40, label %43

40:                                               ; preds = %35
  %41 = load i32, ptr %8, align 4
  %42 = add i32 %41, 262144
  store i32 %42, ptr %8, align 4
  br label %43

43:                                               ; preds = %40, %35
  br label %53

44:                                               ; preds = %29
  %45 = load i32, ptr %8, align 4
  %46 = and i32 %45, 3932160
  %47 = lshr i32 %46, 18
  %48 = icmp eq i32 %47, 0
  br i1 %48, label %49, label %52

49:                                               ; preds = %44
  %50 = load i32, ptr %8, align 4
  %51 = add i32 %50, 262144
  store i32 %51, ptr %8, align 4
  br label %52

52:                                               ; preds = %49, %44
  br label %53

53:                                               ; preds = %52, %43
  %54 = load ptr, ptr %3, align 8
  %55 = getelementptr inbounds nuw %struct.BufferDesc, ptr %54, i32 0, i32 2
  %56 = load i32, ptr %8, align 4
  %57 = call zeroext i1 @pg_atomic_compare_exchange_u32(ptr noundef %55, ptr noundef %9, i32 noundef %56)
  br i1 %57, label %58, label %66

58:                                               ; preds = %53
  %59 = load i32, ptr %8, align 4
  %60 = and i32 %59, 16777216
  %61 = icmp ne i32 %60, 0
  %62 = zext i1 %61 to i8
  store i8 %62, ptr %6, align 1
  br label %63

63:                                               ; preds = %58
  br label %64

64:                                               ; preds = %63
  br label %65

65:                                               ; preds = %64
  br label %67

66:                                               ; preds = %53
  br label %22

67:                                               ; preds = %65
  call void @llvm.lifetime.end.p0(i64 4, ptr %9) #10
  call void @llvm.lifetime.end.p0(i64 4, ptr %8) #10
  br label %75

68:                                               ; preds = %2
  %69 = load ptr, ptr %3, align 8
  %70 = getelementptr inbounds nuw %struct.BufferDesc, ptr %69, i32 0, i32 2
  %71 = call i32 @pg_atomic_read_u32(ptr noundef %70)
  %72 = and i32 %71, 16777216
  %73 = icmp ne i32 %72, 0
  %74 = zext i1 %73 to i8
  store i8 %74, ptr %6, align 1
  br label %75

75:                                               ; preds = %68, %67
  %76 = load ptr, ptr %7, align 8
  %77 = getelementptr inbounds nuw %struct.PrivateRefCountEntry, ptr %76, i32 0, i32 1
  %78 = load i32, ptr %77, align 4
  %79 = add i32 %78, 1
  store i32 %79, ptr %77, align 4
  %80 = load ptr, ptr @CurrentResourceOwner, align 8
  %81 = load i32, ptr %5, align 4
  call void @ResourceOwnerRememberBuffer(ptr noundef %80, i32 noundef %81)
  %82 = load i8, ptr %6, align 1, !range !4, !noundef !5
  %83 = trunc i8 %82 to i1
  call void @llvm.lifetime.end.p0(i64 8, ptr %7) #10
  call void @llvm.lifetime.end.p0(i64 1, ptr %6) #10
  call void @llvm.lifetime.end.p0(i64 4, ptr %5) #10
  ret i1 %83
}