; Function Attrs: nounwind uwtable
define internal fastcc zeroext i1 @PinBuffer(ptr noundef %0, ptr noundef readnone captures(address_is_null) %1) unnamed_addr #0 {
  %3 = alloca %struct.SpinDelayStatus, align 8
  %4 = getelementptr i8, ptr %0, i64 20
  %.val = load i32, ptr %4, align 4
  %5 = add i32 %.val, 1
  %6 = tail call fastcc ptr @GetPrivateRefCountEntry(i32 noundef %5, i1 noundef zeroext true)
  %7 = icmp eq ptr %6, null
  br i1 %7, label %8, label %43

8:                                                ; preds = %2
  %9 = load ptr, ptr @ReservedRefCountEntry, align 8
  store ptr null, ptr @ReservedRefCountEntry, align 8
  store i32 %5, ptr %9, align 4
  %10 = getelementptr inbounds nuw i8, ptr %9, i64 4
  store i32 0, ptr %10, align 4
  %11 = getelementptr inbounds nuw i8, ptr %0, i64 24
  %12 = load volatile i32, ptr %11, align 4
  %13 = getelementptr inbounds nuw i8, ptr %3, i64 4
  %14 = getelementptr inbounds nuw i8, ptr %3, i64 8
  %15 = getelementptr inbounds nuw i8, ptr %3, i64 16
  %16 = getelementptr inbounds nuw i8, ptr %3, i64 24
  %17 = getelementptr inbounds nuw i8, ptr %3, i64 32
  %18 = icmp eq ptr %1, null
  br i1 %18, label %.split.us, label %.split

.split.us:                                        ; preds = %8, %23
  %.024.us = phi i32 [ %29, %23 ], [ %12, %8 ]
  %19 = and i32 %.024.us, 4194304
  %.not.us = icmp eq i32 %19, 0
  br i1 %.not.us, label %23, label %20

20:                                               ; preds = %.split.us
  call void @llvm.lifetime.start.p0(i64 40, ptr nonnull %3) #16
  store i32 0, ptr %3, align 8
  store i32 0, ptr %13, align 4
  store i32 0, ptr %14, align 8
  store ptr @.str.3, ptr %15, align 8
  store i32 5735, ptr %16, align 8
  store ptr @__func__.WaitBufHdrUnlocked, ptr %17, align 8
  %.03.i.us = load volatile i32, ptr %11, align 4
  %21 = and i32 %.03.i.us, 4194304
  %.not4.i.us = icmp eq i32 %21, 0
  br i1 %.not4.i.us, label %WaitBufHdrUnlocked.exit.us, label %.lr.ph.i.us

.lr.ph.i.us:                                      ; preds = %20, %.lr.ph.i.us
  call void @perform_spin_delay(ptr noundef nonnull %3) #16
  %.0.i.us = load volatile i32, ptr %11, align 4
  %22 = and i32 %.0.i.us, 4194304
  %.not.i.us = icmp eq i32 %22, 0
  br i1 %.not.i.us, label %WaitBufHdrUnlocked.exit.us, label %.lr.ph.i.us, !llvm.loop !11

WaitBufHdrUnlocked.exit.us:                       ; preds = %.lr.ph.i.us, %20
  %.0.lcssa.i.us = phi i32 [ %.03.i.us, %20 ], [ %.0.i.us, %.lr.ph.i.us ]
  call void @finish_spin_delay(ptr noundef nonnull %3) #16
  call void @llvm.lifetime.end.p0(i64 40, ptr nonnull %3) #16
  br label %23

23:                                               ; preds = %WaitBufHdrUnlocked.exit.us, %.split.us
  %.1.us = phi i32 [ %.024.us, %.split.us ], [ %.0.lcssa.i.us, %WaitBufHdrUnlocked.exit.us ]
  %24 = add nuw i32 %.1.us, 1
  %25 = and i32 %24, 3932160
  %26 = icmp samesign ult i32 %25, 1310720
  %27 = add nuw i32 %.1.us, 262145
  %spec.select.us = select i1 %26, i32 %27, i32 %24
  %28 = call { i32, i8 } asm sideeffect "\09lock\09\09\09\09\0A\09cmpxchgl\09$4,$5\09\0A   setz\09\09$2\09\09\0A", "={ax},=*m,=q,{ax},r,*m,~{memory},~{cc},~{dirflag},~{fpsr},~{flags}"(ptr nonnull elementtype(i32) %11, i32 %.1.us, i32 %spec.select.us, ptr nonnull elementtype(i32) %11) #16, !srcloc !12
  %29 = extractvalue { i32, i8 } %28, 0
  %30 = extractvalue { i32, i8 } %28, 1
  %.not25.us = icmp eq i8 %30, 0
  br i1 %.not25.us, label %.split.us, label %.loopexit

.split:                                           ; preds = %8, %35
  %.024 = phi i32 [ %41, %35 ], [ %12, %8 ]
  %31 = and i32 %.024, 4194304
  %.not = icmp eq i32 %31, 0
  br i1 %.not, label %35, label %32

32:                                               ; preds = %.split
  call void @llvm.lifetime.start.p0(i64 40, ptr nonnull %3) #16
  store i32 0, ptr %3, align 8
  store i32 0, ptr %13, align 4
  store i32 0, ptr %14, align 8
  store ptr @.str.3, ptr %15, align 8
  store i32 5735, ptr %16, align 8
  store ptr @__func__.WaitBufHdrUnlocked, ptr %17, align 8
  %.03.i = load volatile i32, ptr %11, align 4
  %33 = and i32 %.03.i, 4194304
  %.not4.i = icmp eq i32 %33, 0
  br i1 %.not4.i, label %WaitBufHdrUnlocked.exit, label %.lr.ph.i

.lr.ph.i:                                         ; preds = %32, %.lr.ph.i
  call void @perform_spin_delay(ptr noundef nonnull %3) #16
  %.0.i = load volatile i32, ptr %11, align 4
  %34 = and i32 %.0.i, 4194304
  %.not.i = icmp eq i32 %34, 0
  br i1 %.not.i, label %WaitBufHdrUnlocked.exit, label %.lr.ph.i, !llvm.loop !11

WaitBufHdrUnlocked.exit:                          ; preds = %.lr.ph.i, %32
  %.0.lcssa.i = phi i32 [ %.03.i, %32 ], [ %.0.i, %.lr.ph.i ]
  call void @finish_spin_delay(ptr noundef nonnull %3) #16
  call void @llvm.lifetime.end.p0(i64 40, ptr nonnull %3) #16
  br label %35

35:                                               ; preds = %WaitBufHdrUnlocked.exit, %.split
  %.1 = phi i32 [ %.024, %.split ], [ %.0.lcssa.i, %WaitBufHdrUnlocked.exit ]
  %36 = add nuw i32 %.1, 1
  %37 = and i32 %36, 3932160
  %38 = icmp eq i32 %37, 0
  %39 = add nuw i32 %.1, 262145
  %spec.select21 = select i1 %38, i32 %39, i32 %36
  %40 = call { i32, i8 } asm sideeffect "\09lock\09\09\09\09\0A\09cmpxchgl\09$4,$5\09\0A   setz\09\09$2\09\09\0A", "={ax},=*m,=q,{ax},r,*m,~{memory},~{cc},~{dirflag},~{fpsr},~{flags}"(ptr nonnull elementtype(i32) %11, i32 %.1, i32 %spec.select21, ptr nonnull elementtype(i32) %11) #16, !srcloc !12
  %41 = extractvalue { i32, i8 } %40, 0
  %42 = extractvalue { i32, i8 } %40, 1
  %.not25 = icmp eq i8 %42, 0
  br i1 %.not25, label %.split, label %.loopexit

43:                                               ; preds = %2
  %44 = getelementptr inbounds nuw i8, ptr %0, i64 24
  %45 = load volatile i32, ptr %44, align 4
  br label %.loopexit

.loopexit:                                        ; preds = %35, %23, %43
  %.019.in.in.in = phi i32 [ %45, %43 ], [ %spec.select.us, %23 ], [ %spec.select21, %35 ]
  %.018 = phi ptr [ %6, %43 ], [ %9, %23 ], [ %9, %35 ]
  %46 = and i32 %.019.in.in.in, 16777216
  %.019.in = icmp ne i32 %46, 0
  %47 = getelementptr inbounds nuw i8, ptr %.018, i64 4
  %48 = load i32, ptr %47, align 4
  %49 = add i32 %48, 1
  store i32 %49, ptr %47, align 4
  %50 = load ptr, ptr @CurrentResourceOwner, align 8
  %51 = sext i32 %5 to i64
  call void @ResourceOwnerRemember(ptr noundef %50, i64 noundef %51, ptr noundef nonnull @buffer_pin_resowner_desc) #16
  ret i1 %.019.in
}